; Function Attrs: nounwind uwtable
define ptr @l_Lean_Meta_forEachExpr_x27___at_Lean_Meta_forEachExpr___spec__1___rarg(ptr noundef %0, ptr noundef %1, ptr noundef %2, ptr noundef %3, ptr noundef %4) #0 {
  %6 = ptrtoint ptr %1 to i64
  %7 = and i64 %6, 1
  %.not = icmp eq i64 %7, 0
  br i1 %.not, label %8, label %lean_inc.exit40

8:                                                ; preds = %5
  %.val.i = load i32, ptr %1, align 4, !tbaa !4
  %9 = icmp sgt i32 %.val.i, 0
  br i1 %9, label %10, label %12, !prof !13

10:                                               ; preds = %8
  %11 = add nuw i32 %.val.i, 1
  store i32 %11, ptr %1, align 4, !tbaa !4
  br label %lean_inc.exit40

12:                                               ; preds = %8
  %.not.i = icmp eq i32 %.val.i, 0
  br i1 %.not.i, label %lean_inc.exit40, label %13

13:                                               ; preds = %12
  tail call void @lean_inc_ref_cold(ptr noundef nonnull %1) #4
  br label %lean_inc.exit40

lean_inc.exit40:                                  ; preds = %13, %12, %10, %5
  tail call void @lean_inc_heartbeat() #4
  %14 = tail call noalias ptr @mi_malloc_small(i64 noundef 32) #4
  %15 = icmp eq ptr %14, null
  br i1 %15, label %16, label %lean_alloc_closure.exit

16:                                               ; preds = %lean_inc.exit40
  tail call void @lean_internal_panic_out_of_memory() #5
  unreachable

lean_alloc_closure.exit:                          ; preds = %lean_inc.exit40
  %17 = getelementptr inbounds nuw i8, ptr %14, i64 4
  store i32 1, ptr %14, align 4, !tbaa !4
  store i32 -184549344, ptr %17, align 4
  %18 = getelementptr inbounds nuw i8, ptr %14, i64 8
  store ptr @l_Lean_Meta_forEachExpr_x27___rarg___lambda__2, ptr %18, align 8, !tbaa !9
  %19 = getelementptr inbounds nuw i8, ptr %14, i64 16
  store i16 3, ptr %19, align 8, !tbaa !11
  %20 = getelementptr inbounds nuw i8, ptr %14, i64 18
  store i16 1, ptr %20, align 2, !tbaa !11
  %21 = getelementptr inbounds nuw i8, ptr %14, i64 24
  store ptr %1, ptr %21, align 8, !tbaa !9
  %22 = getelementptr inbounds nuw i8, ptr %0, i64 16
  %23 = load ptr, ptr %22, align 8, !tbaa !9
  %24 = ptrtoint ptr %23 to i64
  %25 = and i64 %24, 1
  %.not58 = icmp eq i64 %25, 0
  br i1 %.not58, label %26, label %lean_inc.exit39

26:                                               ; preds = %lean_alloc_closure.exit
  %.val.i41 = load i32, ptr %23, align 4, !tbaa !4
  %27 = icmp sgt i32 %.val.i41, 0
  br i1 %27, label %28, label %30, !prof !13

28:                                               ; preds = %26
  %29 = add nuw i32 %.val.i41, 1
  store i32 %29, ptr %23, align 4, !tbaa !4
  br label %lean_inc.exit39

30:                                               ; preds = %26
  %.not.i42 = icmp eq i32 %.val.i41, 0
  br i1 %.not.i42, label %lean_inc.exit39, label %31

31:                                               ; preds = %30
  tail call void @lean_inc_ref_cold(ptr noundef nonnull %23) #4
  br label %lean_inc.exit39

lean_inc.exit39:                                  ; preds = %31, %30, %28, %lean_alloc_closure.exit
  %32 = load ptr, ptr @l_Lean_Meta_forEachExpr_x27___at_Lean_Meta_forEachExpr___spec__1___rarg___closed__1, align 8, !tbaa !9
  br i1 %.not, label %33, label %lean_inc.exit38

33:                                               ; preds = %lean_inc.exit39
  %.val.i44 = load i32, ptr %1, align 4, !tbaa !4
  %34 = icmp sgt i32 %.val.i44, 0
  br i1 %34, label %35, label %37, !prof !13

35:                                               ; preds = %33
  %36 = add nuw i32 %.val.i44, 1
  store i32 %36, ptr %1, align 4, !tbaa !4
  br label %lean_inc.exit38

37:                                               ; preds = %33
  %.not.i45 = icmp eq i32 %.val.i44, 0
  br i1 %.not.i45, label %lean_inc.exit38, label %38

38:                                               ; preds = %37
  tail call void @lean_inc_ref_cold(ptr noundef nonnull %1) #4
  br label %lean_inc.exit38

lean_inc.exit38:                                  ; preds = %38, %37, %35, %lean_inc.exit39
  %39 = tail call ptr @lean_apply_2(ptr noundef %1, ptr noundef nonnull inttoptr (i64 1 to ptr), ptr noundef %32) #4
  br i1 %.not58, label %40, label %lean_inc.exit37

40:                                               ; preds = %lean_inc.exit38
  %.val.i47 = load i32, ptr %23, align 4, !tbaa !4
  %41 = icmp sgt i32 %.val.i47, 0
  br i1 %41, label %42, label %44, !prof !13

42:                                               ; preds = %40
  %43 = add nuw i32 %.val.i47, 1
  store i32 %43, ptr %23, align 4, !tbaa !4
  br label %lean_inc.exit37

44:                                               ; preds = %40
  %.not.i48 = icmp eq i32 %.val.i47, 0
  br i1 %.not.i48, label %lean_inc.exit37, label %45

45:                                               ; preds = %44
  tail call void @lean_inc_ref_cold(ptr noundef nonnull %23) #4
  br label %lean_inc.exit37

lean_inc.exit37:                                  ; preds = %45, %44, %42, %lean_inc.exit38
  %46 = ptrtoint ptr %0 to i64
  %47 = and i64 %46, 1
  %.not59 = icmp eq i64 %47, 0
  br i1 %.not59, label %48, label %lean_inc.exit36

48:                                               ; preds = %lean_inc.exit37
  %.val.i50 = load i32, ptr %0, align 4, !tbaa !4
  %49 = icmp sgt i32 %.val.i50, 0
  br i1 %49, label %50, label %52, !prof !13

50:                                               ; preds = %48
  %51 = add nuw i32 %.val.i50, 1
  store i32 %51, ptr %0, align 4, !tbaa !4
  br label %lean_inc.exit36

52:                                               ; preds = %48
  %.not.i51 = icmp eq i32 %.val.i50, 0
  br i1 %.not.i51, label %lean_inc.exit36, label %53

53:                                               ; preds = %52
  tail call void @lean_inc_ref_cold(ptr noundef nonnull %0) #4
  br label %lean_inc.exit36

lean_inc.exit36:                                  ; preds = %53, %52, %50, %lean_inc.exit37
  tail call void @lean_inc_heartbeat() #4
  %54 = tail call noalias ptr @mi_malloc_small(i64 noundef 88) #4
  %55 = icmp eq ptr %54, null
  br i1 %55, label %56, label %lean_alloc_closure.exit53

56:                                               ; preds = %lean_inc.exit36
  tail call void @lean_internal_panic_out_of_memory() #5
  unreachable

lean_alloc_closure.exit53:                        ; preds = %lean_inc.exit36
  %57 = getelementptr inbounds nuw i8, ptr %54, i64 4
  store i32 1, ptr %54, align 4, !tbaa !4
  store i32 -184549288, ptr %57, align 4
  %58 = getelementptr inbounds nuw i8, ptr %54, i64 8
  store ptr @l_Lean_Meta_forEachExpr_x27___rarg___lambda__7, ptr %58, align 8, !tbaa !9
  %59 = getelementptr inbounds nuw i8, ptr %54, i64 16
  store i16 9, ptr %59, align 8, !tbaa !11
  %60 = getelementptr inbounds nuw i8, ptr %54, i64 18
  store i16 8, ptr %60, align 2, !tbaa !11
  %61 = getelementptr inbounds nuw i8, ptr %54, i64 24
  store ptr %0, ptr %61, align 8, !tbaa !9
  %62 = getelementptr inbounds nuw i8, ptr %54, i64 32
  store ptr %2, ptr %62, align 8, !tbaa !9
  %63 = getelementptr inbounds nuw i8, ptr %54, i64 40
  store ptr %4, ptr %63, align 8, !tbaa !9
  %64 = getelementptr inbounds nuw i8, ptr %54, i64 48
  store ptr inttoptr (i64 1 to ptr), ptr %64, align 8, !tbaa !9
  %65 = getelementptr inbounds nuw i8, ptr %54, i64 56
  store ptr %14, ptr %65, align 8, !tbaa !9
  %66 = getelementptr inbounds nuw i8, ptr %54, i64 64
  store ptr %3, ptr %66, align 8, !tbaa !9
  %67 = getelementptr inbounds nuw i8, ptr %54, i64 72
  store ptr %1, ptr %67, align 8, !tbaa !9
  %68 = getelementptr inbounds nuw i8, ptr %54, i64 80
  store ptr %23, ptr %68, align 8, !tbaa !9
  br i1 %.not58, label %69, label %lean_inc.exit

69:                                               ; preds = %lean_alloc_closure.exit53
  %.val.i54 = load i32, ptr %23, align 4, !tbaa !4
  %70 = icmp sgt i32 %.val.i54, 0
  br i1 %70, label %71, label %73, !prof !13

71:                                               ; preds = %69
  %72 = add nuw i32 %.val.i54, 1
  store i32 %72, ptr %23, align 4, !tbaa !4
  br label %lean_inc.exit

73:                                               ; preds = %69
  %.not.i55 = icmp eq i32 %.val.i54, 0
  br i1 %.not.i55, label %lean_inc.exit, label %74

74:                                               ; preds = %73
  tail call void @lean_inc_ref_cold(ptr noundef nonnull %23) #4
  br label %lean_inc.exit

lean_inc.exit:                                    ; preds = %74, %73, %71, %lean_alloc_closure.exit53
  %75 = tail call ptr @lean_apply_4(ptr noundef %23, ptr noundef nonnull inttoptr (i64 1 to ptr), ptr noundef nonnull inttoptr (i64 1 to ptr), ptr noundef %39, ptr noundef nonnull %54) #4
  tail call void @lean_inc_heartbeat() #4
  %76 = tail call noalias ptr @mi_malloc_small(i64 noundef 32) #4
  %77 = icmp eq ptr %76, null
  br i1 %77, label %78, label %lean_alloc_closure.exit57

78:                                               ; preds = %lean_inc.exit
  tail call void @lean_internal_panic_out_of_memory() #5
  unreachable

lean_alloc_closure.exit57:                        ; preds = %lean_inc.exit
  %79 = getelementptr inbounds nuw i8, ptr %76, i64 4
  store i32 1, ptr %76, align 4, !tbaa !4
  store i32 -184549344, ptr %79, align 4
  %80 = getelementptr inbounds nuw i8, ptr %76, i64 8
  store ptr @l_Lean_Meta_forEachExpr_x27___rarg___lambda__8, ptr %80, align 8, !tbaa !9
  %81 = getelementptr inbounds nuw i8, ptr %76, i64 16
  store i16 2, ptr %81, align 8, !tbaa !11
  %82 = getelementptr inbounds nuw i8, ptr %76, i64 18
  store i16 1, ptr %82, align 2, !tbaa !11
  %83 = getelementptr inbounds nuw i8, ptr %76, i64 24
  store ptr %0, ptr %83, align 8, !tbaa !9
  %84 = tail call ptr @lean_apply_4(ptr noundef %23, ptr noundef nonnull inttoptr (i64 1 to ptr), ptr noundef nonnull inttoptr (i64 1 to ptr), ptr noundef %75, ptr noundef nonnull %76) #4
  ret ptr %84
}